; Function Attrs: mustprogress nounwind uwtable
define dso_local noundef zeroext i1 @_ZNK4llvm15TargetInstrInfo23getMemOperandWithOffsetERKNS_12MachineInstrERPKNS_14MachineOperandERlRbPKNS_18TargetRegisterInfoE(ptr noundef nonnull align 8 dereferenceable(80) %0, ptr noundef nonnull align 8 dereferenceable(70) %1, ptr nocapture noundef nonnull writeonly align 8 dereferenceable(8) %2, ptr noundef nonnull align 8 dereferenceable(8) %3, ptr noundef nonnull align 1 dereferenceable(1) %4, ptr noundef %5) local_unnamed_addr #0 align 2 {
  %7 = alloca %"class.llvm::SmallVector.367", align 8
  %8 = alloca %"class.llvm::LocationSize", align 8
  %9 = getelementptr inbounds i8, ptr %7, i64 16
  call void @_ZN4llvm15SmallVectorBaseIjEC2EPvm(ptr noundef nonnull align 8 dereferenceable(16) %7, ptr noundef nonnull %9, i64 noundef 4) #26
  store i64 0, ptr %8, align 8
  %10 = load ptr, ptr %0, align 8
  %11 = getelementptr inbounds i8, ptr %10, i64 728
  %12 = load ptr, ptr %11, align 8
  %13 = call noundef zeroext i1 %12(ptr noundef nonnull align 8 dereferenceable(80) %0, ptr noundef nonnull align 8 dereferenceable(70) %1, ptr noundef nonnull align 8 dereferenceable(16) %7, ptr noundef nonnull align 8 dereferenceable(8) %3, ptr noundef nonnull align 1 dereferenceable(1) %4, ptr noundef nonnull align 8 dereferenceable(8) %8, ptr noundef %5) #26
  br i1 %13, label %14, label %19

14:                                               ; preds = %6
  %15 = call noundef i64 @_ZNK4llvm15SmallVectorBaseIjE4sizeEv(ptr noundef nonnull align 8 dereferenceable(16) %7) #26
  %.not = icmp eq i64 %15, 1
  br i1 %.not, label %16, label %19

16:                                               ; preds = %14
  %17 = load ptr, ptr %7, align 8
  %18 = load ptr, ptr %17, align 8
  store ptr %18, ptr %2, align 8
  br label %19

19:                                               ; preds = %6, %14, %16
  %.0 = phi i1 [ true, %16 ], [ false, %14 ], [ false, %6 ]
  %20 = call noundef i64 @_ZNK4llvm15SmallVectorBaseIjE4sizeEv(ptr noundef nonnull align 8 dereferenceable(16) %7) #26
  %21 = load ptr, ptr %7, align 8
  %22 = icmp eq ptr %21, %9
  br i1 %22, label %_ZN4llvm11SmallVectorIPKNS_14MachineOperandELj4EED2Ev.exit, label %23

23:                                               ; preds = %19
  call void @free(ptr noundef %21) #26
  br label %_ZN4llvm11SmallVectorIPKNS_14MachineOperandELj4EED2Ev.exit

_ZN4llvm11SmallVectorIPKNS_14MachineOperandELj4EED2Ev.exit: ; preds = %19, %23
  ret i1 %.0
}